(lp0
(dp1
VtableName
p2
V
p3
sVname
p4
VW29270
p5
sVreleaseRate
p6
F0.3
sVarea
p7
F0.10559999999999999
sa(dp8
VtableName
p9
VW29270MWRD_40.0_0.3
p10
sVname
p11
VW29270MWRD
p12
sVreleaseRate
p13
F0.3
sVarea
p14
F0.0704
sa(dp15
VtableName
p16
g3
sVname
p17
VW29240
p18
sVreleaseRate
p19
F0.3
sVarea
p20
F0.031799999999999995
sa(dp21
VtableName
p22
VW29240MWRD_40.0_0.3
p23
sVname
p24
VW29240MWRD
p25
sVreleaseRate
p26
F0.3
sVarea
p27
F0.0212
sa(dp28
VtableName
p29
g3
sVname
p30
VW29230
p31
sVreleaseRate
p32
F0.3
sVarea
p33
F0.10944
sa(dp34
VtableName
p35
VW29230MWRD_40.0_0.3
p36
sVname
p37
VW29230MWRD
p38
sVreleaseRate
p39
F0.3
sVarea
p40
F0.07296000000000001
sa(dp41
VtableName
p42
g3
sVname
p43
VW29220
p44
sVreleaseRate
p45
F0.3
sVarea
p46
F0.11375999999999999
sa(dp47
VtableName
p48
VW29220MWRD_40.0_0.3
p49
sVname
p50
VW29220MWRD
p51
sVreleaseRate
p52
F0.3
sVarea
p53
F0.07584
sa(dp54
VtableName
p55
g3
sVname
p56
VW29190
p57
sVreleaseRate
p58
F0.3
sVarea
p59
F0.17292000000000002
sa(dp60
VtableName
p61
VW29190MWRD_40.0_0.3
p62
sVname
p63
VW29190MWRD
p64
sVreleaseRate
p65
F0.3
sVarea
p66
F0.11528000000000001
sa(dp67
VtableName
p68
g3
sVname
p69
VW33050
p70
sVreleaseRate
p71
F0.3
sVarea
p72
F0.14322
sa(dp73
VtableName
p74
VW33050MWRD_40.0_0.3
p75
sVname
p76
VW33050MWRD
p77
sVreleaseRate
p78
F0.3
sVarea
p79
F0.09548000000000001
sa(dp80
VtableName
p81
g3
sVname
p82
VW29120
p83
sVreleaseRate
p84
F0.3
sVarea
p85
F0.11825999999999999
sa(dp86
VtableName
p87
VW29120MWRD_40.0_0.3
p88
sVname
p89
VW29120MWRD
p90
sVreleaseRate
p91
F0.3
sVarea
p92
F0.07884000000000001
sa(dp93
VtableName
p94
g3
sVname
p95
VW29080
p96
sVreleaseRate
p97
F0.3
sVarea
p98
F0.09534000000000001
sa(dp99
VtableName
p100
VW29080MWRD_40.0_0.3
p101
sVname
p102
VW29080MWRD
p103
sVreleaseRate
p104
F0.3
sVarea
p105
F0.06356
sa(dp106
VtableName
p107
g3
sVname
p108
VW33000
p109
sVreleaseRate
p110
F0.3
sVarea
p111
F0.19307999999999997
sa(dp112
VtableName
p113
VW33000MWRD_40.0_0.3
p114
sVname
p115
VW33000MWRD
p116
sVreleaseRate
p117
F0.3
sVarea
p118
F0.12872
sa(dp119
VtableName
p120
g3
sVname
p121
VW29030
p122
sVreleaseRate
p123
F0.3
sVarea
p124
F0.09605999999999999
sa(dp125
VtableName
p126
VW29030MWRD_40.0_0.3
p127
sVname
p128
VW29030MWRD
p129
sVreleaseRate
p130
F0.3
sVarea
p131
F0.06404
sa(dp132
VtableName
p133
g3
sVname
p134
VW28990
p135
sVreleaseRate
p136
F0.3
sVarea
p137
F0.17387999999999998
sa(dp138
VtableName
p139
VW28990MWRD_40.0_0.3
p140
sVname
p141
VW28990MWRD
p142
sVreleaseRate
p143
F0.3
sVarea
p144
F0.11592000000000001
sa(dp145
VtableName
p146
g3
sVname
p147
VW28960
p148
sVreleaseRate
p149
F0.3
sVarea
p150
F0.1617
sa(dp151
VtableName
p152
VW28960MWRD_40.0_0.3
p153
sVname
p154
VW28960MWRD
p155
sVreleaseRate
p156
F0.3
sVarea
p157
F0.1078
sa(dp158
VtableName
p159
g3
sVname
p160
VW32780
p161
sVreleaseRate
p162
F0.3
sVarea
p163
F0.08693999999999999
sa(dp164
VtableName
p165
VW32780MWRD_40.0_0.3
p166
sVname
p167
VW32780MWRD
p168
sVreleaseRate
p169
F0.3
sVarea
p170
F0.057960000000000005
sa(dp171
VtableName
p172
g3
sVname
p173
VW28940
p174
sVreleaseRate
p175
F0.3
sVarea
p176
F0.10817999999999998
sa(dp177
VtableName
p178
VW28940MWRD_40.0_0.3
p179
sVname
p180
VW28940MWRD
p181
sVreleaseRate
p182
F0.3
sVarea
p183
F0.07212
sa(dp184
VtableName
p185
g3
sVname
p186
VW28910
p187
sVreleaseRate
p188
F0.3
sVarea
p189
F0.14466
sa(dp190
VtableName
p191
VW28910MWRD_40.0_0.3
p192
sVname
p193
VW28910MWRD
p194
sVreleaseRate
p195
F0.3
sVarea
p196
F0.09644000000000001
sa(dp197
VtableName
p198
g3
sVname
p199
VW28860
p200
sVreleaseRate
p201
F0.3
sVarea
p202
F0.17694
sa(dp203
VtableName
p204
VW28860MWRD_40.0_0.3
p205
sVname
p206
VW28860MWRD
p207
sVreleaseRate
p208
F0.3
sVarea
p209
F0.11796000000000001
sa(dp210
VtableName
p211
g3
sVname
p212
VW28850
p213
sVreleaseRate
p214
F0.3
sVarea
p215
F0.1392
sa(dp216
VtableName
p217
VW28850MWRD_40.0_0.3
p218
sVname
p219
VW28850MWRD
p220
sVreleaseRate
p221
F0.3
sVarea
p222
F0.09280000000000001
sa(dp223
VtableName
p224
g3
sVname
p225
VW28790
p226
sVreleaseRate
p227
F0.3
sVarea
p228
F0.08771999999999999
sa(dp229
VtableName
p230
VW28790MWRD_40.0_0.3
p231
sVname
p232
VW28790MWRD
p233
sVreleaseRate
p234
F0.3
sVarea
p235
F0.058480000000000004
sa(dp236
VtableName
p237
g3
sVname
p238
VW29660
p239
sVreleaseRate
p240
F0.3
sVarea
p241
F0.04734
sa(dp242
VtableName
p243
VW29660MWRD_40.0_0.3
p244
sVname
p245
VW29660MWRD
p246
sVreleaseRate
p247
F0.3
sVarea
p248
F0.03156
sa(dp249
VtableName
p250
g3
sVname
p251
VW33110
p252
sVreleaseRate
p253
F0.3
sVarea
p254
F0.07493999999999999
sa(dp255
VtableName
p256
VW33110MWRD_40.0_0.3
p257
sVname
p258
VW33110MWRD
p259
sVreleaseRate
p260
F0.3
sVarea
p261
F0.049960000000000004
sa(dp262
VtableName
p263
g3
sVname
p264
VW33310
p265
sVreleaseRate
p266
F0.3
sVarea
p267
F0.0807
sa(dp268
VtableName
p269
VW33310MWRD_40.0_0.3
p270
sVname
p271
VW33310MWRD
p272
sVreleaseRate
p273
F0.3
sVarea
p274
F0.05380000000000001
sa(dp275
VtableName
p276
g3
sVname
p277
VW33260
p278
sVreleaseRate
p279
F0.3
sVarea
p280
F0.12444
sa(dp281
VtableName
p282
VW33260MWRD_40.0_0.3
p283
sVname
p284
VW33260MWRD
p285
sVreleaseRate
p286
F0.3
sVarea
p287
F0.08296
sa(dp288
VtableName
p289
g3
sVname
p290
VW33210
p291
sVreleaseRate
p292
F0.3
sVarea
p293
F0.10451999999999999
sa(dp294
VtableName
p295
VW33210MWRD_40.0_0.3
p296
sVname
p297
VW33210MWRD
p298
sVreleaseRate
p299
F0.3
sVarea
p300
F0.06968
sa(dp301
VtableName
p302
g3
sVname
p303
VW33160
p304
sVreleaseRate
p305
F0.3
sVarea
p306
F0.07319999999999999
sa(dp307
VtableName
p308
VW33160MWRD_40.0_0.3
p309
sVname
p310
VW33160MWRD
p311
sVreleaseRate
p312
F0.3
sVarea
p313
F0.0488
sa(dp314
VtableName
p315
g3
sVname
p316
VW32630
p317
sVreleaseRate
p318
F0.3
sVarea
p319
F0.19668
sa(dp320
VtableName
p321
VW32630MWRD_40.0_0.3
p322
sVname
p323
VW32630MWRD
p324
sVreleaseRate
p325
F0.3
sVarea
p326
F0.13112
sa(dp327
VtableName
p328
g3
sVname
p329
VW33060
p330
sVreleaseRate
p331
F0.3
sVarea
p332
F0.1485
sa(dp333
VtableName
p334
VW33060MWRD_40.0_0.3
p335
sVname
p336
VW33060MWRD
p337
sVreleaseRate
p338
F0.3
sVarea
p339
F0.099
sa(dp340
VtableName
p341
g3
sVname
p342
VW33010
p343
sVreleaseRate
p344
F0.3
sVarea
p345
F0.18816
sa(dp346
VtableName
p347
VW33010MWRD_40.0_0.3
p348
sVname
p349
VW33010MWRD
p350
sVreleaseRate
p351
F0.3
sVarea
p352
F0.12544
sa(dp353
VtableName
p354
g3
sVname
p355
VW32960
p356
sVreleaseRate
p357
F0.3
sVarea
p358
F0.10692
sa(dp359
VtableName
p360
VW32960MWRD_40.0_0.3
p361
sVname
p362
VW32960MWRD
p363
sVreleaseRate
p364
F0.3
sVarea
p365
F0.07128
sa(dp366
VtableName
p367
g3
sVname
p368
VW32910
p369
sVreleaseRate
p370
F0.3
sVarea
p371
F0.24281999999999998
sa(dp372
VtableName
p373
VW32910MWRD_40.0_0.3
p374
sVname
p375
VW32910MWRD
p376
sVreleaseRate
p377
F0.3
sVarea
p378
F0.16188000000000002
sa(dp379
VtableName
p380
g3
sVname
p381
VW32900
p382
sVreleaseRate
p383
F0.3
sVarea
p384
F0.20682
sa(dp385
VtableName
p386
VW32900MWRD_40.0_0.3
p387
sVname
p388
VW32900MWRD
p389
sVreleaseRate
p390
F0.3
sVarea
p391
F0.13788
sa(dp392
VtableName
p393
g3
sVname
p394
VW32790
p395
sVreleaseRate
p396
F0.3
sVarea
p397
F0.24792
sa(dp398
VtableName
p399
VW32790MWRD_40.0_0.3
p400
sVname
p401
VW32790MWRD
p402
sVreleaseRate
p403
F0.3
sVarea
p404
F0.16528
sa(dp405
VtableName
p406
g3
sVname
p407
VW32740
p408
sVreleaseRate
p409
F0.3
sVarea
p410
F0.10404
sa(dp411
VtableName
p412
VW32740MWRD_40.0_0.3
p413
sVname
p414
VW32740MWRD
p415
sVreleaseRate
p416
F0.3
sVarea
p417
F0.06936
sa(dp418
VtableName
p419
g3
sVname
p420
VW32690
p421
sVreleaseRate
p422
F0.3
sVarea
p423
F0.11903999999999999
sa(dp424
VtableName
p425
VW32690MWRD_40.0_0.3
p426
sVname
p427
VW32690MWRD
p428
sVreleaseRate
p429
F0.3
sVarea
p430
F0.07936
sa(dp431
VtableName
p432
g3
sVname
p433
VW32640
p434
sVreleaseRate
p435
F0.3
sVarea
p436
F0.11814
sa(dp437
VtableName
p438
VW32640MWRD_40.0_0.3
p439
sVname
p440
VW32640MWRD
p441
sVreleaseRate
p442
F0.3
sVarea
p443
F0.07876
sa(dp444
VtableName
p445
g3
sVname
p446
VW29600
p447
sVreleaseRate
p448
F0.3
sVarea
p449
F0.12336
sa(dp450
VtableName
p451
VW29600MWRD_40.0_0.3
p452
sVname
p453
VW29600MWRD
p454
sVreleaseRate
p455
F0.3
sVarea
p456
F0.08224000000000001
sa(dp457
VtableName
p458
g3
sVname
p459
VW28580
p460
sVreleaseRate
p461
F0.3
sVarea
p462
F0.10596
sa(dp463
VtableName
p464
VW28580MWRD_40.0_0.3
p465
sVname
p466
VW28580MWRD
p467
sVreleaseRate
p468
F0.3
sVarea
p469
F0.07064000000000001
sa(dp470
VtableName
p471
g3
sVname
p472
VW29630
p473
sVreleaseRate
p474
F0.3
sVarea
p475
F0.0948
sa(dp476
VtableName
p477
VW29630MWRD_40.0_0.3
p478
sVname
p479
VW29630MWRD
p480
sVreleaseRate
p481
F0.3
sVarea
p482
F0.0632
sa(dp483
VtableName
p484
g3
sVname
p485
VW28530
p486
sVreleaseRate
p487
F0.3
sVarea
p488
F0.17784
sa(dp489
VtableName
p490
VW28530MWRD_40.0_0.3
p491
sVname
p492
VW28530MWRD
p493
sVreleaseRate
p494
F0.3
sVarea
p495
F0.11856
sa(dp496
VtableName
p497
g3
sVname
p498
VW29590
p499
sVreleaseRate
p500
F0.3
sVarea
p501
F0.08501999999999998
sa(dp502
VtableName
p503
VW29590MWRD_40.0_0.3
p504
sVname
p505
VW29590MWRD
p506
sVreleaseRate
p507
F0.3
sVarea
p508
F0.05668
sa(dp509
VtableName
p510
g3
sVname
p511
VW33300
p512
sVreleaseRate
p513
F0.3
sVarea
p514
F0.2208
sa(dp515
VtableName
p516
VW33300MWRD_40.0_0.3
p517
sVname
p518
VW33300MWRD
p519
sVreleaseRate
p520
F0.3
sVarea
p521
F0.1472
sa(dp522
VtableName
p523
g3
sVname
p524
VW29540
p525
sVreleaseRate
p526
F0.3
sVarea
p527
F0.1263
sa(dp528
VtableName
p529
VW29540MWRD_40.0_0.3
p530
sVname
p531
VW29540MWRD
p532
sVreleaseRate
p533
F0.3
sVarea
p534
F0.0842
sa(dp535
VtableName
p536
g3
sVname
p537
VW33150
p538
sVreleaseRate
p539
F0.3
sVarea
p540
F0.055979999999999995
sa(dp541
VtableName
p542
VW33150MWRD_40.0_0.3
p543
sVname
p544
VW33150MWRD
p545
sVreleaseRate
p546
F0.3
sVarea
p547
F0.03732
sa(dp548
VtableName
p549
g3
sVname
p550
VW29520
p551
sVreleaseRate
p552
F0.3
sVarea
p553
F0.062459999999999995
sa(dp554
VtableName
p555
VW29520MWRD_40.0_0.3
p556
sVname
p557
VW29520MWRD
p558
sVreleaseRate
p559
F0.3
sVarea
p560
F0.04164
sa(dp561
VtableName
p562
g3
sVname
p563
VW29500
p564
sVreleaseRate
p565
F0.3
sVarea
p566
F0.07788
sa(dp567
VtableName
p568
VW29500MWRD_40.0_0.3
p569
sVname
p570
VW29500MWRD
p571
sVreleaseRate
p572
F0.3
sVarea
p573
F0.05192
sa(dp574
VtableName
p575
g3
sVname
p576
VW33250
p577
sVreleaseRate
p578
F0.3
sVarea
p579
F0.08213999999999999
sa(dp580
VtableName
p581
VW33250MWRD_40.0_0.3
p582
sVname
p583
VW33250MWRD
p584
sVreleaseRate
p585
F0.3
sVarea
p586
F0.05476
sa(dp587
VtableName
p588
g3
sVname
p589
VW29480
p590
sVreleaseRate
p591
F0.3
sVarea
p592
F0.21306
sa(dp593
VtableName
p594
VW29480MWRD_40.0_0.3
p595
sVname
p596
VW29480MWRD
p597
sVreleaseRate
p598
F0.3
sVarea
p599
F0.14204000000000003
sa(dp600
VtableName
p601
g3
sVname
p602
VW29450
p603
sVreleaseRate
p604
F0.3
sVarea
p605
F0.10428
sa(dp606
VtableName
p607
VW29450MWRD_40.0_0.3
p608
sVname
p609
VW29450MWRD
p610
sVreleaseRate
p611
F0.3
sVarea
p612
F0.06952000000000001
sa(dp613
VtableName
p614
g3
sVname
p615
VW29420
p616
sVreleaseRate
p617
F0.3
sVarea
p618
F0.16271999999999998
sa(dp619
VtableName
p620
VW29420MWRD_40.0_0.3
p621
sVname
p622
VW29420MWRD
p623
sVreleaseRate
p624
F0.3
sVarea
p625
F0.10848000000000001
sa(dp626
VtableName
p627
g3
sVname
p628
VW29410
p629
sVreleaseRate
p630
F0.3
sVarea
p631
F0.08957999999999999
sa(dp632
VtableName
p633
VW29410MWRD_40.0_0.3
p634
sVname
p635
VW29410MWRD
p636
sVreleaseRate
p637
F0.3
sVarea
p638
F0.059719999999999995
sa(dp639
VtableName
p640
g3
sVname
p641
VW29400
p642
sVreleaseRate
p643
F0.3
sVarea
p644
F0.11796
sa(dp645
VtableName
p646
VW29400MWRD_40.0_0.3
p647
sVname
p648
VW29400MWRD
p649
sVreleaseRate
p650
F0.3
sVarea
p651
F0.07864
sa(dp652
VtableName
p653
g3
sVname
p654
VW29380
p655
sVreleaseRate
p656
F0.3
sVarea
p657
F0.07338
sa(dp658
VtableName
p659
VW29380MWRD_40.0_0.3
p660
sVname
p661
VW29380MWRD
p662
sVreleaseRate
p663
F0.3
sVarea
p664
F0.048920000000000005
sa(dp665
VtableName
p666
g3
sVname
p667
VW29360
p668
sVreleaseRate
p669
F0.3
sVarea
p670
F0.06119999999999999
sa(dp671
VtableName
p672
VW29360MWRD_40.0_0.3
p673
sVname
p674
VW29360MWRD
p675
sVreleaseRate
p676
F0.3
sVarea
p677
F0.0408
sa(dp678
VtableName
p679
g3
sVname
p680
VW29320
p681
sVreleaseRate
p682
F0.3
sVarea
p683
F0.03114
sa(dp684
VtableName
p685
VW29320MWRD_40.0_0.3
p686
sVname
p687
VW29320MWRD
p688
sVreleaseRate
p689
F0.3
sVarea
p690
F0.02076
sa(dp691
VtableName
p692
g3
sVname
p693
VW29310
p694
sVreleaseRate
p695
F0.3
sVarea
p696
F0.09359999999999999
sa(dp697
VtableName
p698
VW29310MWRD_40.0_0.3
p699
sVname
p700
VW29310MWRD
p701
sVreleaseRate
p702
F0.3
sVarea
p703
F0.062400000000000004
sa(dp704
VtableName
p705
g3
sVname
p706
VW29290
p707
sVreleaseRate
p708
F0.3
sVarea
p709
F0.08549999999999999
sa(dp710
VtableName
p711
VW29290MWRD_40.0_0.3
p712
sVname
p713
VW29290MWRD
p714
sVreleaseRate
p715
F0.3
sVarea
p716
F0.056999999999999995
sa(dp717
VtableName
p718
g3
sVname
p719
VW40410
p720
sVreleaseRate
p721
F0.3
sVarea
p722
F0.12462
sa(dp723
VtableName
p724
VW40410MWRD_40.0_0.3
p725
sVname
p726
VW40410MWRD
p727
sVreleaseRate
p728
F0.3
sVarea
p729
F0.08308
sa(dp730
VtableName
p731
g3
sVname
p732
VW40360
p733
sVreleaseRate
p734
F0.3
sVarea
p735
F0.26166
sa(dp736
VtableName
p737
VW40360MWRD_40.0_0.3
p738
sVname
p739
VW40360MWRD
p740
sVreleaseRate
p741
F0.3
sVarea
p742
F0.17444
sa(dp743
VtableName
p744
g3
sVname
p745
VW40310
p746
sVreleaseRate
p747
F0.3
sVarea
p748
F0.162
sa(dp749
VtableName
p750
VW40310MWRD_40.0_0.3
p751
sVname
p752
VW40310MWRD
p753
sVreleaseRate
p754
F0.3
sVarea
p755
F0.10800000000000001
sa(dp756
VtableName
p757
g3
sVname
p758
VW40260
p759
sVreleaseRate
p760
F0.3
sVarea
p761
F0.14394
sa(dp762
VtableName
p763
VW40260MWRD_40.0_0.3
p764
sVname
p765
VW40260MWRD
p766
sVreleaseRate
p767
F0.3
sVarea
p768
F0.09596
sa(dp769
VtableName
p770
g3
sVname
p771
VW40210
p772
sVreleaseRate
p773
F0.3
sVarea
p774
F0.10356
sa(dp775
VtableName
p776
VW40210MWRD_40.0_0.3
p777
sVname
p778
VW40210MWRD
p779
sVreleaseRate
p780
F0.3
sVarea
p781
F0.06904
sa(dp782
VtableName
p783
g3
sVname
p784
VW40160
p785
sVreleaseRate
p786
F0.3
sVarea
p787
F0.08909999999999998
sa(dp788
VtableName
p789
VW40160MWRD_40.0_0.3
p790
sVname
p791
VW40160MWRD
p792
sVreleaseRate
p793
F0.3
sVarea
p794
F0.0594
sa(dp795
VtableName
p796
g3
sVname
p797
VW40200
p798
sVreleaseRate
p799
F0.3
sVarea
p800
F0.08406
sa(dp801
VtableName
p802
VW40200MWRD_40.0_0.3
p803
sVname
p804
VW40200MWRD
p805
sVreleaseRate
p806
F0.3
sVarea
p807
F0.056040000000000006
sa(dp808
VtableName
p809
g3
sVname
p810
VW40060
p811
sVreleaseRate
p812
F0.3
sVarea
p813
F0.15774
sa(dp814
VtableName
p815
VW40060MWRD_40.0_0.3
p816
sVname
p817
VW40060MWRD
p818
sVreleaseRate
p819
F0.3
sVarea
p820
F0.10516000000000002
sa(dp821
VtableName
p822
g3
sVname
p823
VW40010
p824
sVreleaseRate
p825
F0.3
sVarea
p826
F0.07361999999999999
sa(dp827
VtableName
p828
VW40010MWRD_40.0_0.3
p829
sVname
p830
VW40010MWRD
p831
sVreleaseRate
p832
F0.3
sVarea
p833
F0.049080000000000006
sa(dp834
VtableName
p835
g3
sVname
p836
VW39960
p837
sVreleaseRate
p838
F0.3
sVarea
p839
F0.17268
sa(dp840
VtableName
p841
VW39960MWRD_40.0_0.3
p842
sVname
p843
VW39960MWRD
p844
sVreleaseRate
p845
F0.3
sVarea
p846
F0.11512
sa(dp847
VtableName
p848
g3
sVname
p849
VW39950
p850
sVreleaseRate
p851
F0.3
sVarea
p852
F0.07308
sa(dp853
VtableName
p854
VW39950MWRD_40.0_0.3
p855
sVname
p856
VW39950MWRD
p857
sVreleaseRate
p858
F0.3
sVarea
p859
F0.048720000000000006
sa(dp860
VtableName
p861
g3
sVname
p862
VW39740
p863
sVreleaseRate
p864
F0.3
sVarea
p865
F0.12143999999999999
sa(dp866
VtableName
p867
VW39740MWRD_40.0_0.3
p868
sVname
p869
VW39740MWRD
p870
sVreleaseRate
p871
F0.3
sVarea
p872
F0.08096
sa(dp873
VtableName
p874
g3
sVname
p875
VW39690
p876
sVreleaseRate
p877
F0.3
sVarea
p878
F0.17262
sa(dp879
VtableName
p880
VW39690MWRD_40.0_0.3
p881
sVname
p882
VW39690MWRD
p883
sVreleaseRate
p884
F0.3
sVarea
p885
F0.11508000000000002
sa(dp886
VtableName
p887
g3
sVname
p888
VW39640
p889
sVreleaseRate
p890
F0.3
sVarea
p891
F0.12882
sa(dp892
VtableName
p893
VW39640MWRD_40.0_0.3
p894
sVname
p895
VW39640MWRD
p896
sVreleaseRate
p897
F0.3
sVarea
p898
F0.08588000000000001
sa(dp899
VtableName
p900
g3
sVname
p901
VW39530
p902
sVreleaseRate
p903
F0.3
sVarea
p904
F0.09918
sa(dp905
VtableName
p906
VW39530MWRD_40.0_0.3
p907
sVname
p908
VW39530MWRD
p909
sVreleaseRate
p910
F0.3
sVarea
p911
F0.06612
sa(dp912
VtableName
p913
g3
sVname
p914
VW39480
p915
sVreleaseRate
p916
F0.3
sVarea
p917
F0.13566
sa(dp918
VtableName
p919
VW39480MWRD_40.0_0.3
p920
sVname
p921
VW39480MWRD
p922
sVreleaseRate
p923
F0.3
sVarea
p924
F0.09044
sa(dp925
VtableName
p926
g3
sVname
p927
VW39420
p928
sVreleaseRate
p929
F0.3
sVarea
p930
F0.05687999999999999
sa(dp931
VtableName
p932
VW39420MWRD_40.0_0.3
p933
sVname
p934
VW39420MWRD
p935
sVreleaseRate
p936
F0.3
sVarea
p937
F0.03792
sa(dp938
VtableName
p939
g3
sVname
p940
VW39190
p941
sVreleaseRate
p942
F0.3
sVarea
p943
F0.08280000000000001
sa(dp944
VtableName
p945
VW39190MWRD_40.0_0.3
p946
sVname
p947
VW39190MWRD
p948
sVreleaseRate
p949
F0.3
sVarea
p950
F0.055200000000000006
sa(dp951
VtableName
p952
g3
sVname
p953
VW39180
p954
sVreleaseRate
p955
F0.3
sVarea
p956
F0.08897999999999999
sa(dp957
VtableName
p958
VW39180MWRD_40.0_0.3
p959
sVname
p960
VW39180MWRD
p961
sVreleaseRate
p962
F0.3
sVarea
p963
F0.05932
sa(dp964
VtableName
p965
g3
sVname
p966
VW39120
p967
sVreleaseRate
p968
F0.3
sVarea
p969
F0.14339999999999997
sa(dp970
VtableName
p971
VW39120MWRD_40.0_0.3
p972
sVname
p973
VW39120MWRD
p974
sVreleaseRate
p975
F0.3
sVarea
p976
F0.0956
sa(dp977
VtableName
p978
g3
sVname
p979
VW39630
p980
sVreleaseRate
p981
F0.3
sVarea
p982
F0.10572
sa(dp983
VtableName
p984
VW39630MWRD_40.0_0.3
p985
sVname
p986
VW39630MWRD
p987
sVreleaseRate
p988
F0.3
sVarea
p989
F0.07048
sa(dp990
VtableName
p991
g3
sVname
p992
VW39520
p993
sVreleaseRate
p994
F0.3
sVarea
p995
F0.13578
sa(dp996
VtableName
p997
VW39520MWRD_40.0_0.3
p998
sVname
p999
VW39520MWRD
p1000
sVreleaseRate
p1001
F0.3
sVarea
p1002
F0.09052
sa(dp1003
VtableName
p1004
g3
sVname
p1005
VW39090
p1006
sVreleaseRate
p1007
F0.3
sVarea
p1008
F0.13998
sa(dp1009
VtableName
p1010
VW39090MWRD_40.0_0.3
p1011
sVname
p1012
VW39090MWRD
p1013
sVreleaseRate
p1014
F0.3
sVarea
p1015
F0.09332000000000001
sa(dp1016
VtableName
p1017
g3
sVname
p1018
VW39060
p1019
sVreleaseRate
p1020
F0.3
sVarea
p1021
F0.05448
sa(dp1022
VtableName
p1023
VW39060MWRD_40.0_0.3
p1024
sVname
p1025
VW39060MWRD
p1026
sVreleaseRate
p1027
F0.3
sVarea
p1028
F0.036320000000000005
sa(dp1029
VtableName
p1030
g3
sVname
p1031
VW39050
p1032
sVreleaseRate
p1033
F0.3
sVarea
p1034
F0.1179
sa(dp1035
VtableName
p1036
VW39050MWRD_40.0_0.3
p1037
sVname
p1038
VW39050MWRD
p1039
sVreleaseRate
p1040
F0.3
sVarea
p1041
F0.0786
sa(dp1042
VtableName
p1043
g3
sVname
p1044
VW39010
p1045
sVreleaseRate
p1046
F0.3
sVarea
p1047
F0.09732
sa(dp1048
VtableName
p1049
VW39010MWRD_40.0_0.3
p1050
sVname
p1051
VW39010MWRD
p1052
sVreleaseRate
p1053
F0.3
sVarea
p1054
F0.06488000000000001
sa(dp1055
VtableName
p1056
g3
sVname
p1057
VW39000
p1058
sVreleaseRate
p1059
F0.3
sVarea
p1060
F0.09738
sa(dp1061
VtableName
p1062
VW39000MWRD_40.0_0.3
p1063
sVname
p1064
VW39000MWRD
p1065
sVreleaseRate
p1066
F0.3
sVarea
p1067
F0.06492
sa(dp1068
VtableName
p1069
g3
sVname
p1070
VW39680
p1071
sVreleaseRate
p1072
F0.3
sVarea
p1073
F0.14123999999999998
sa(dp1074
VtableName
p1075
VW39680MWRD_40.0_0.3
p1076
sVname
p1077
VW39680MWRD
p1078
sVreleaseRate
p1079
F0.3
sVarea
p1080
F0.09416000000000001
sa(dp1081
VtableName
p1082
g3
sVname
p1083
VW39730
p1084
sVreleaseRate
p1085
F0.3
sVarea
p1086
F0.20868
sa(dp1087
VtableName
p1088
VW39730MWRD_40.0_0.3
p1089
sVname
p1090
VW39730MWRD
p1091
sVreleaseRate
p1092
F0.3
sVarea
p1093
F0.13912
sa(dp1094
VtableName
p1095
g3
sVname
p1096
VW40250
p1097
sVreleaseRate
p1098
F0.3
sVarea
p1099
F0.14651999999999998
sa(dp1100
VtableName
p1101
VW40250MWRD_40.0_0.3
p1102
sVname
p1103
VW40250MWRD
p1104
sVreleaseRate
p1105
F0.3
sVarea
p1106
F0.09768
sa(dp1107
VtableName
p1108
g3
sVname
p1109
VW38870
p1110
sVreleaseRate
p1111
F0.3
sVarea
p1112
F0.15504
sa(dp1113
VtableName
p1114
VW38870MWRD_40.0_0.3
p1115
sVname
p1116
VW38870MWRD
p1117
sVreleaseRate
p1118
F0.3
sVarea
p1119
F0.10336000000000001
sa(dp1120
VtableName
p1121
g3
sVname
p1122
VW38840
p1123
sVreleaseRate
p1124
F0.3
sVarea
p1125
F0.17364
sa(dp1126
VtableName
p1127
VW38840MWRD_40.0_0.3
p1128
sVname
p1129
VW38840MWRD
p1130
sVreleaseRate
p1131
F0.3
sVarea
p1132
F0.11576
sa(dp1133
VtableName
p1134
g3
sVname
p1135
VW40400
p1136
sVreleaseRate
p1137
F0.3
sVarea
p1138
F0.10734
sa(dp1139
VtableName
p1140
VW40400MWRD_40.0_0.3
p1141
sVname
p1142
VW40400MWRD
p1143
sVreleaseRate
p1144
F0.3
sVarea
p1145
F0.07156
sa.