(lp0
(dp1
VtableName
p2
V
p3
sVname
p4
VMS52
p5
sVreleaseRate
p6
F0.3
sVarea
p7
F0.03164514
sa(dp8
VtableName
p9
VMS52MWRD_40.0_0.3
p10
sVname
p11
VMS52MWRD
p12
sVreleaseRate
p13
F0.3
sVarea
p14
F0.021096760000000003
sa(dp15
VtableName
p16
g3
sVname
p17
VMS51
p18
sVreleaseRate
p19
F0.3
sVarea
p20
F0.23585399999999998
sa(dp21
VtableName
p22
VMS51MWRD_40.0_0.3
p23
sVname
p24
VMS51MWRD
p25
sVreleaseRate
p26
F0.3
sVarea
p27
F0.15723600000000001
sa(dp28
VtableName
p29
g3
sVname
p30
VMS50
p31
sVreleaseRate
p32
F0.3
sVarea
p33
F0.13968599999999998
sa(dp34
VtableName
p35
VMS50MWRD_40.0_0.3
p36
sVname
p37
VMS50MWRD
p38
sVreleaseRate
p39
F0.3
sVarea
p40
F0.093124
sa(dp41
VtableName
p42
g3
sVname
p43
VMS49
p44
sVreleaseRate
p45
F0.3
sVarea
p46
F0.09209399999999998
sa(dp47
VtableName
p48
VMS49MWRD_40.0_0.3
p49
sVname
p50
VMS49MWRD
p51
sVreleaseRate
p52
F0.3
sVarea
p53
F0.061396
sa(dp54
VtableName
p55
g3
sVname
p56
VMS48
p57
sVreleaseRate
p58
F0.3
sVarea
p59
F0.176016
sa(dp60
VtableName
p61
VMS48MWRD_40.0_0.3
p62
sVname
p63
VMS48MWRD
p64
sVreleaseRate
p65
F0.3
sVarea
p66
F0.117344
sa(dp67
VtableName
p68
g3
sVname
p69
VMS33
p70
sVreleaseRate
p71
F0.3
sVarea
p72
F0.12231
sa(dp73
VtableName
p74
VMS33MWRD_40.0_0.3
p75
sVname
p76
VMS33MWRD
p77
sVreleaseRate
p78
F0.3
sVarea
p79
F0.08154
sa(dp80
VtableName
p81
g3
sVname
p82
VMS32
p83
sVreleaseRate
p84
F0.3
sVarea
p85
F0.151266
sa(dp86
VtableName
p87
VMS32MWRD_40.0_0.3
p88
sVname
p89
VMS32MWRD
p90
sVreleaseRate
p91
F0.3
sVarea
p92
F0.100844
sa(dp93
VtableName
p94
g3
sVname
p95
VMS25
p96
sVreleaseRate
p97
F0.3
sVarea
p98
F0.325476
sa(dp99
VtableName
p100
VMS25MWRD_40.0_0.3
p101
sVname
p102
VMS25MWRD
p103
sVreleaseRate
p104
F0.3
sVarea
p105
F0.21698400000000004
sa(dp106
VtableName
p107
g3
sVname
p108
VMS24
p109
sVreleaseRate
p110
F0.3
sVarea
p111
F0.392166
sa(dp112
VtableName
p113
VMS24MWRD_40.0_0.3
p114
sVname
p115
VMS24MWRD
p116
sVreleaseRate
p117
F0.3
sVarea
p118
F0.261444
sa(dp119
VtableName
p120
g3
sVname
p121
VMS23
p122
sVreleaseRate
p123
F0.3
sVarea
p124
F0.33736200000000005
sa(dp125
VtableName
p126
VMS23MWRD_40.0_0.3
p127
sVname
p128
VMS23MWRD
p129
sVreleaseRate
p130
F0.3
sVarea
p131
F0.22490800000000002
sa(dp132
VtableName
p133
g3
sVname
p134
VMS22
p135
sVreleaseRate
p136
F0.3
sVarea
p137
F0.191862
sa(dp138
VtableName
p139
VMS22MWRD_40.0_0.3
p140
sVname
p141
VMS22MWRD
p142
sVreleaseRate
p143
F0.3
sVarea
p144
F0.127908
sa(dp145
VtableName
p146
g3
sVname
p147
VMS21
p148
sVreleaseRate
p149
F0.3
sVarea
p150
F0.13932
sa(dp151
VtableName
p152
VMS21MWRD_40.0_0.3
p153
sVname
p154
VMS21MWRD
p155
sVreleaseRate
p156
F0.3
sVarea
p157
F0.09288
sa(dp158
VtableName
p159
g3
sVname
p160
VMS20
p161
sVreleaseRate
p162
F0.3
sVarea
p163
F0.07908
sa(dp164
VtableName
p165
VMS20MWRD_40.0_0.3
p166
sVname
p167
VMS20MWRD
p168
sVreleaseRate
p169
F0.3
sVarea
p170
F0.05272
sa(dp171
VtableName
p172
g3
sVname
p173
VMS19
p174
sVreleaseRate
p175
F0.3
sVarea
p176
F0.13887
sa(dp177
VtableName
p178
VMS19MWRD_40.0_0.3
p179
sVname
p180
VMS19MWRD
p181
sVreleaseRate
p182
F0.3
sVarea
p183
F0.09258
sa(dp184
VtableName
p185
g3
sVname
p186
VMS18
p187
sVreleaseRate
p188
F0.3
sVarea
p189
F0.24346799999999996
sa(dp190
VtableName
p191
VMS18MWRD_40.0_0.3
p192
sVname
p193
VMS18MWRD
p194
sVreleaseRate
p195
F0.3
sVarea
p196
F0.162312
sa(dp197
VtableName
p198
g3
sVname
p199
VMS17
p200
sVreleaseRate
p201
F0.3
sVarea
p202
F0.25893
sa(dp203
VtableName
p204
VMS17MWRD_40.0_0.3
p205
sVname
p206
VMS17MWRD
p207
sVreleaseRate
p208
F0.3
sVarea
p209
F0.17262
sa(dp210
VtableName
p211
g3
sVname
p212
VMS16
p213
sVreleaseRate
p214
F0.3
sVarea
p215
F0.088062
sa(dp216
VtableName
p217
VMS16MWRD_40.0_0.3
p218
sVname
p219
VMS16MWRD
p220
sVreleaseRate
p221
F0.3
sVarea
p222
F0.05870800000000001
sa(dp223
VtableName
p224
g3
sVname
p225
VMS12
p226
sVreleaseRate
p227
F0.3
sVarea
p228
F0.166314
sa(dp229
VtableName
p230
VMS12MWRD_40.0_0.3
p231
sVname
p232
VMS12MWRD
p233
sVreleaseRate
p234
F0.3
sVarea
p235
F0.110876
sa(dp236
VtableName
p237
g3
sVname
p238
VMS11
p239
sVreleaseRate
p240
F0.3
sVarea
p241
F0.11326199999999999
sa(dp242
VtableName
p243
VMS11MWRD_40.0_0.3
p244
sVname
p245
VMS11MWRD
p246
sVreleaseRate
p247
F0.3
sVarea
p248
F0.075508
sa(dp249
VtableName
p250
g3
sVname
p251
VMS10
p252
sVreleaseRate
p253
F0.3
sVarea
p254
F0.261138
sa(dp255
VtableName
p256
VMS10MWRD_40.0_0.3
p257
sVname
p258
VMS10MWRD
p259
sVreleaseRate
p260
F0.3
sVarea
p261
F0.17409200000000002
sa(dp262
VtableName
p263
g3
sVname
p264
VMS09
p265
sVreleaseRate
p266
F0.3
sVarea
p267
F0.186336
sa(dp268
VtableName
p269
VMS09MWRD_40.0_0.3
p270
sVname
p271
VMS09MWRD
p272
sVreleaseRate
p273
F0.3
sVarea
p274
F0.124224
sa(dp275
VtableName
p276
g3
sVname
p277
VMS08
p278
sVreleaseRate
p279
F0.3
sVarea
p280
F0.095352
sa(dp281
VtableName
p282
VMS08MWRD_40.0_0.3
p283
sVname
p284
VMS08MWRD
p285
sVreleaseRate
p286
F0.3
sVarea
p287
F0.063568
sa(dp288
VtableName
p289
g3
sVname
p290
VMS04
p291
sVreleaseRate
p292
F0.3
sVarea
p293
F0.203676
sa(dp294
VtableName
p295
VMS04MWRD_40.0_0.3
p296
sVname
p297
VMS04MWRD
p298
sVreleaseRate
p299
F0.3
sVarea
p300
F0.135784
sa(dp301
VtableName
p302
g3
sVname
p303
VMS03
p304
sVreleaseRate
p305
F0.3
sVarea
p306
F0.26866199999999996
sa(dp307
VtableName
p308
VMS03MWRD_40.0_0.3
p309
sVname
p310
VMS03MWRD
p311
sVreleaseRate
p312
F0.3
sVarea
p313
F0.17910800000000002
sa(dp314
VtableName
p315
g3
sVname
p316
VMS02
p317
sVreleaseRate
p318
F0.3
sVarea
p319
F0.06231
sa(dp320
VtableName
p321
VMS02MWRD_40.0_0.3
p322
sVname
p323
VMS02MWRD
p324
sVreleaseRate
p325
F0.3
sVarea
p326
F0.04154
sa(dp327
VtableName
p328
g3
sVname
p329
VMS01
p330
sVreleaseRate
p331
F0.3
sVarea
p332
F0.185562
sa(dp333
VtableName
p334
VMS01MWRD_40.0_0.3
p335
sVname
p336
VMS01MWRD
p337
sVreleaseRate
p338
F0.3
sVarea
p339
F0.123708
sa(dp340
VtableName
p341
g3
sVname
p342
VMS07
p343
sVreleaseRate
p344
F0.3
sVarea
p345
F0.04167936
sa(dp346
VtableName
p347
VMS07MWRD_40.0_0.3
p348
sVname
p349
VMS07MWRD
p350
sVreleaseRate
p351
F0.3
sVarea
p352
F0.027786240000000004
sa(dp353
VtableName
p354
g3
sVname
p355
VMS06
p356
sVreleaseRate
p357
F0.3
sVarea
p358
F0.069216
sa(dp359
VtableName
p360
VMS06MWRD_40.0_0.3
p361
sVname
p362
VMS06MWRD
p363
sVreleaseRate
p364
F0.3
sVarea
p365
F0.046144000000000004
sa(dp366
VtableName
p367
g3
sVname
p368
VMS05
p369
sVreleaseRate
p370
F0.3
sVarea
p371
F0.343356
sa(dp372
VtableName
p373
VMS05MWRD_40.0_0.3
p374
sVname
p375
VMS05MWRD
p376
sVreleaseRate
p377
F0.3
sVarea
p378
F0.228904
sa(dp379
VtableName
p380
g3
sVname
p381
VMS15
p382
sVreleaseRate
p383
F0.3
sVarea
p384
F0.06132
sa(dp385
VtableName
p386
VMS15MWRD_40.0_0.3
p387
sVname
p388
VMS15MWRD
p389
sVreleaseRate
p390
F0.3
sVarea
p391
F0.04088
sa(dp392
VtableName
p393
g3
sVname
p394
VMS14
p395
sVreleaseRate
p396
F0.3
sVarea
p397
F0.079284
sa(dp398
VtableName
p399
VMS14MWRD_40.0_0.3
p400
sVname
p401
VMS14MWRD
p402
sVreleaseRate
p403
F0.3
sVarea
p404
F0.05285600000000001
sa(dp405
VtableName
p406
g3
sVname
p407
VMS13
p408
sVreleaseRate
p409
F0.3
sVarea
p410
F0.407466
sa(dp411
VtableName
p412
VMS13MWRD_40.0_0.3
p413
sVname
p414
VMS13MWRD
p415
sVreleaseRate
p416
F0.3
sVarea
p417
F0.271644
sa(dp418
VtableName
p419
g3
sVname
p420
VMS31
p421
sVreleaseRate
p422
F0.3
sVarea
p423
F0.120864
sa(dp424
VtableName
p425
VMS31MWRD_40.0_0.3
p426
sVname
p427
VMS31MWRD
p428
sVreleaseRate
p429
F0.3
sVarea
p430
F0.08057600000000001
sa(dp431
VtableName
p432
g3
sVname
p433
VMS30
p434
sVreleaseRate
p435
F0.3
sVarea
p436
F0.19921799999999998
sa(dp437
VtableName
p438
VMS30MWRD_40.0_0.3
p439
sVname
p440
VMS30MWRD
p441
sVreleaseRate
p442
F0.3
sVarea
p443
F0.132812
sa(dp444
VtableName
p445
g3
sVname
p446
VMS29
p447
sVreleaseRate
p448
F0.3
sVarea
p449
F0.122928
sa(dp450
VtableName
p451
VMS29MWRD_40.0_0.3
p452
sVname
p453
VMS29MWRD
p454
sVreleaseRate
p455
F0.3
sVarea
p456
F0.08195200000000001
sa(dp457
VtableName
p458
g3
sVname
p459
VMS28
p460
sVreleaseRate
p461
F0.3
sVarea
p462
F0.310482
sa(dp463
VtableName
p464
VMS28MWRD_40.0_0.3
p465
sVname
p466
VMS28MWRD
p467
sVreleaseRate
p468
F0.3
sVarea
p469
F0.206988
sa(dp470
VtableName
p471
g3
sVname
p472
VMS27
p473
sVreleaseRate
p474
F0.3
sVarea
p475
F0.167286
sa(dp476
VtableName
p477
VMS27MWRD_40.0_0.3
p478
sVname
p479
VMS27MWRD
p480
sVreleaseRate
p481
F0.3
sVarea
p482
F0.11152400000000001
sa(dp483
VtableName
p484
g3
sVname
p485
VMS26
p486
sVreleaseRate
p487
F0.3
sVarea
p488
F0.27294599999999997
sa(dp489
VtableName
p490
VMS26MWRD_40.0_0.3
p491
sVname
p492
VMS26MWRD
p493
sVreleaseRate
p494
F0.3
sVarea
p495
F0.18196400000000001
sa(dp496
VtableName
p497
g3
sVname
p498
VMS47
p499
sVreleaseRate
p500
F0.3
sVarea
p501
F0.05556911999999999
sa(dp502
VtableName
p503
VMS47MWRD_40.0_0.3
p504
sVname
p505
VMS47MWRD
p506
sVreleaseRate
p507
F0.3
sVarea
p508
F0.03704608
sa(dp509
VtableName
p510
g3
sVname
p511
VMS44
p512
sVreleaseRate
p513
F0.3
sVarea
p514
F0.22715399999999997
sa(dp515
VtableName
p516
VMS44MWRD_40.0_0.3
p517
sVname
p518
VMS44MWRD
p519
sVreleaseRate
p520
F0.3
sVarea
p521
F0.15143600000000002
sa(dp522
VtableName
p523
g3
sVname
p524
VMS43
p525
sVreleaseRate
p526
F0.3
sVarea
p527
F0.13618799999999998
sa(dp528
VtableName
p529
VMS43MWRD_40.0_0.3
p530
sVname
p531
VMS43MWRD
p532
sVreleaseRate
p533
F0.3
sVarea
p534
F0.090792
sa(dp535
VtableName
p536
g3
sVname
p537
VMS36
p538
sVreleaseRate
p539
F0.3
sVarea
p540
F0.10168200000000001
sa(dp541
VtableName
p542
VMS36MWRD_40.0_0.3
p543
sVname
p544
VMS36MWRD
p545
sVreleaseRate
p546
F0.3
sVarea
p547
F0.067788
sa(dp548
VtableName
p549
g3
sVname
p550
VMS35
p551
sVreleaseRate
p552
F0.3
sVarea
p553
F0.114366
sa(dp554
VtableName
p555
VMS35MWRD_40.0_0.3
p556
sVname
p557
VMS35MWRD
p558
sVreleaseRate
p559
F0.3
sVarea
p560
F0.076244
sa(dp561
VtableName
p562
g3
sVname
p563
VMS34
p564
sVreleaseRate
p565
F0.3
sVarea
p566
F0.430986
sa(dp567
VtableName
p568
VMS34MWRD_40.0_0.3
p569
sVname
p570
VMS34MWRD
p571
sVreleaseRate
p572
F0.3
sVarea
p573
F0.287324
sa(dp574
VtableName
p575
g3
sVname
p576
VMS42
p577
sVreleaseRate
p578
F0.3
sVarea
p579
F0.162738
sa(dp580
VtableName
p581
VMS42MWRD_40.0_0.3
p582
sVname
p583
VMS42MWRD
p584
sVreleaseRate
p585
F0.3
sVarea
p586
F0.10849200000000002
sa(dp587
VtableName
p588
g3
sVname
p589
VMS41
p590
sVreleaseRate
p591
F0.3
sVarea
p592
F0.06312599999999999
sa(dp593
VtableName
p594
VMS41MWRD_40.0_0.3
p595
sVname
p596
VMS41MWRD
p597
sVreleaseRate
p598
F0.3
sVarea
p599
F0.042084
sa(dp600
VtableName
p601
g3
sVname
p602
VMS40
p603
sVreleaseRate
p604
F0.3
sVarea
p605
F0.21809399999999998
sa(dp606
VtableName
p607
VMS40MWRD_40.0_0.3
p608
sVname
p609
VMS40MWRD
p610
sVreleaseRate
p611
F0.3
sVarea
p612
F0.145396
sa(dp613
VtableName
p614
g3
sVname
p615
VMS39
p616
sVreleaseRate
p617
F0.3
sVarea
p618
F0.190446
sa(dp619
VtableName
p620
VMS39MWRD_40.0_0.3
p621
sVname
p622
VMS39MWRD
p623
sVreleaseRate
p624
F0.3
sVarea
p625
F0.12696400000000002
sa(dp626
VtableName
p627
g3
sVname
p628
VMS38
p629
sVreleaseRate
p630
F0.3
sVarea
p631
F0.244752
sa(dp632
VtableName
p633
VMS38MWRD_40.0_0.3
p634
sVname
p635
VMS38MWRD
p636
sVreleaseRate
p637
F0.3
sVarea
p638
F0.163168
sa(dp639
VtableName
p640
g3
sVname
p641
VMS37
p642
sVreleaseRate
p643
F0.3
sVarea
p644
F0.6928799999999999
sa(dp645
VtableName
p646
VMS37MWRD_40.0_0.3
p647
sVname
p648
VMS37MWRD
p649
sVreleaseRate
p650
F0.3
sVarea
p651
F0.46192000000000005
sa(dp652
VtableName
p653
g3
sVname
p654
VMS46
p655
sVreleaseRate
p656
F0.3
sVarea
p657
F0.13585799999999998
sa(dp658
VtableName
p659
VMS46MWRD_40.0_0.3
p660
sVname
p661
VMS46MWRD
p662
sVreleaseRate
p663
F0.3
sVarea
p664
F0.090572
sa(dp665
VtableName
p666
g3
sVname
p667
VMS45
p668
sVreleaseRate
p669
F0.3
sVarea
p670
F0.23163
sa(dp671
VtableName
p672
VMS45MWRD_40.0_0.3
p673
sVname
p674
VMS45MWRD
p675
sVreleaseRate
p676
F0.3
sVarea
p677
F0.15442
sa(dp678
VtableName
p679
g3
sVname
p680
VAH04
p681
sVreleaseRate
p682
F0.3
sVarea
p683
F0.084174
sa(dp684
VtableName
p685
VAH04MWRD_40.0_0.3
p686
sVname
p687
VAH04MWRD
p688
sVreleaseRate
p689
F0.3
sVarea
p690
F0.056116
sa(dp691
VtableName
p692
g3
sVname
p693
VAH03
p694
sVreleaseRate
p695
F0.3
sVarea
p696
F0.084366
sa(dp697
VtableName
p698
VAH03MWRD_40.0_0.3
p699
sVname
p700
VAH03MWRD
p701
sVreleaseRate
p702
F0.3
sVarea
p703
F0.05624400000000001
sa(dp704
VtableName
p705
g3
sVname
p706
VAH01
p707
sVreleaseRate
p708
F0.3
sVarea
p709
F1.01628
sa(dp710
VtableName
p711
VAH01MWRD_40.0_0.3
p712
sVname
p713
VAH01MWRD
p714
sVreleaseRate
p715
F0.3
sVarea
p716
F0.67752
sa(dp717
VtableName
p718
g3
sVname
p719
VAH02
p720
sVreleaseRate
p721
F0.3
sVarea
p722
F0.39858
sa(dp723
VtableName
p724
VAH02MWRD_40.0_0.3
p725
sVname
p726
VAH02MWRD
p727
sVreleaseRate
p728
F0.3
sVarea
p729
F0.26572
sa(dp730
VtableName
p731
g3
sVname
p732
VAH05
p733
sVreleaseRate
p734
F0.3
sVarea
p735
F0.193668
sa(dp736
VtableName
p737
VAH05MWRD_40.0_0.3
p738
sVname
p739
VAH05MWRD
p740
sVreleaseRate
p741
F0.3
sVarea
p742
F0.129112
sa(dp743
VtableName
p744
g3
sVname
p745
VAH08
p746
sVreleaseRate
p747
F0.3
sVarea
p748
F0.07377
sa(dp749
VtableName
p750
VAH08MWRD_40.0_0.3
p751
sVname
p752
VAH08MWRD
p753
sVreleaseRate
p754
F0.3
sVarea
p755
F0.04918
sa(dp756
VtableName
p757
g3
sVname
p758
VAH09
p759
sVreleaseRate
p760
F0.3
sVarea
p761
F0.0374688
sa(dp762
VtableName
p763
VAH09MWRD_40.0_0.3
p764
sVname
p765
VAH09MWRD
p766
sVreleaseRate
p767
F0.3
sVarea
p768
F0.0249792
sa(dp769
VtableName
p770
g3
sVname
p771
VAH095
p772
sVreleaseRate
p773
F0.3
sVarea
p774
F0.0257118
sa(dp775
VtableName
p776
VAH095MWRD_40.0_0.3
p777
sVname
p778
VAH095MWRD
p779
sVreleaseRate
p780
F0.3
sVarea
p781
F0.017141200000000002
sa(dp782
VtableName
p783
g3
sVname
p784
VAH10
p785
sVreleaseRate
p786
F0.3
sVarea
p787
F0.14082
sa(dp788
VtableName
p789
VAH10MWRD_40.0_0.3
p790
sVname
p791
VAH10MWRD
p792
sVreleaseRate
p793
F0.3
sVarea
p794
F0.09388
sa(dp795
VtableName
p796
g3
sVname
p797
VAH12
p798
sVreleaseRate
p799
F0.3
sVarea
p800
F0.168516
sa(dp801
VtableName
p802
VAH12MWRD_40.0_0.3
p803
sVname
p804
VAH12MWRD
p805
sVreleaseRate
p806
F0.3
sVarea
p807
F0.112344
sa(dp808
VtableName
p809
g3
sVname
p810
VAH11
p811
sVreleaseRate
p812
F0.3
sVarea
p813
F0.07467599999999999
sa(dp814
VtableName
p815
VAH11MWRD_40.0_0.3
p816
sVname
p817
VAH11MWRD
p818
sVreleaseRate
p819
F0.3
sVarea
p820
F0.049784
sa(dp821
VtableName
p822
g3
sVname
p823
VAH07
p824
sVreleaseRate
p825
F0.3
sVarea
p826
F0.476286
sa(dp827
VtableName
p828
VAH07MWRD_40.0_0.3
p829
sVname
p830
VAH07MWRD
p831
sVreleaseRate
p832
F0.3
sVarea
p833
F0.31752400000000003
sa(dp834
VtableName
p835
g3
sVname
p836
VAH06
p837
sVreleaseRate
p838
F0.3
sVarea
p839
F0.14837999999999998
sa(dp840
VtableName
p841
VAH06MWRD_40.0_0.3
p842
sVname
p843
VAH06MWRD
p844
sVreleaseRate
p845
F0.3
sVarea
p846
F0.09892000000000001
sa(dp847
VtableName
p848
g3
sVname
p849
VAH13
p850
sVreleaseRate
p851
F0.3
sVarea
p852
F0.7632
sa(dp853
VtableName
p854
VAH13MWRD_40.0_0.3
p855
sVname
p856
VAH13MWRD
p857
sVreleaseRate
p858
F0.3
sVarea
p859
F0.5088
sa(dp860
VtableName
p861
g3
sVname
p862
VAH16
p863
sVreleaseRate
p864
F0.3
sVarea
p865
F0.21185400000000001
sa(dp866
VtableName
p867
VAH16MWRD_40.0_0.3
p868
sVname
p869
VAH16MWRD
p870
sVreleaseRate
p871
F0.3
sVarea
p872
F0.141236
sa(dp873
VtableName
p874
g3
sVname
p875
VAH17
p876
sVreleaseRate
p877
F0.3
sVarea
p878
F0.282522
sa(dp879
VtableName
p880
VAH17MWRD_40.0_0.3
p881
sVname
p882
VAH17MWRD
p883
sVreleaseRate
p884
F0.3
sVarea
p885
F0.18834800000000002
sa(dp886
VtableName
p887
g3
sVname
p888
VAH15
p889
sVreleaseRate
p890
F0.3
sVarea
p891
F0.32960999999999996
sa(dp892
VtableName
p893
VAH15MWRD_40.0_0.3
p894
sVname
p895
VAH15MWRD
p896
sVreleaseRate
p897
F0.3
sVarea
p898
F0.21974000000000002
sa(dp899
VtableName
p900
g3
sVname
p901
VAH14
p902
sVreleaseRate
p903
F0.3
sVarea
p904
F0.78528
sa(dp905
VtableName
p906
VAH14MWRD_40.0_0.3
p907
sVname
p908
VAH14MWRD
p909
sVreleaseRate
p910
F0.3
sVarea
p911
F0.52352
sa(dp912
VtableName
p913
g3
sVname
p914
VAH18
p915
sVreleaseRate
p916
F0.3
sVarea
p917
F0.19461
sa(dp918
VtableName
p919
VAH18MWRD_40.0_0.3
p920
sVname
p921
VAH18MWRD
p922
sVreleaseRate
p923
F0.3
sVarea
p924
F0.12974000000000002
sa(dp925
VtableName
p926
g3
sVname
p927
VAH19
p928
sVreleaseRate
p929
F0.3
sVarea
p930
F0.7075199999999999
sa(dp931
VtableName
p932
VAH19MWRD_40.0_0.3
p933
sVname
p934
VAH19MWRD
p935
sVreleaseRate
p936
F0.3
sVarea
p937
F0.47168000000000004
sa(dp938
VtableName
p939
g3
sVname
p940
VAH20
p941
sVreleaseRate
p942
F0.3
sVarea
p943
F0.21339599999999997
sa(dp944
VtableName
p945
VAH20MWRD_40.0_0.3
p946
sVname
p947
VAH20MWRD
p948
sVreleaseRate
p949
F0.3
sVarea
p950
F0.142264
sa(dp951
VtableName
p952
g3
sVname
p953
VAH21
p954
sVreleaseRate
p955
F0.3
sVarea
p956
F0.43536
sa(dp957
VtableName
p958
VAH21MWRD_40.0_0.3
p959
sVname
p960
VAH21MWRD
p961
sVreleaseRate
p962
F0.3
sVarea
p963
F0.29024
sa(dp964
VtableName
p965
g3
sVname
p966
VAH22
p967
sVreleaseRate
p968
F0.3
sVarea
p969
F0.584592
sa(dp970
VtableName
p971
VAH22MWRD_40.0_0.3
p972
sVname
p973
VAH22MWRD
p974
sVreleaseRate
p975
F0.3
sVarea
p976
F0.389728
sa(dp977
VtableName
p978
g3
sVname
p979
VAH23
p980
sVreleaseRate
p981
F0.3
sVarea
p982
F0.288948
sa(dp983
VtableName
p984
VAH23MWRD_40.0_0.3
p985
sVname
p986
VAH23MWRD
p987
sVreleaseRate
p988
F0.3
sVarea
p989
F0.19263200000000003
sa(dp990
VtableName
p991
g3
sVname
p992
VAH24
p993
sVreleaseRate
p994
F0.3
sVarea
p995
F0.19088999999999998
sa(dp996
VtableName
p997
VAH24MWRD_40.0_0.3
p998
sVname
p999
VAH24MWRD
p1000
sVreleaseRate
p1001
F0.3
sVarea
p1002
F0.12726
sa(dp1003
VtableName
p1004
g3
sVname
p1005
VAH25
p1006
sVreleaseRate
p1007
F0.3
sVarea
p1008
F0.292902
sa(dp1009
VtableName
p1010
VAH25MWRD_40.0_0.3
p1011
sVname
p1012
VAH25MWRD
p1013
sVreleaseRate
p1014
F0.3
sVarea
p1015
F0.195268
sa(dp1016
VtableName
p1017
g3
sVname
p1018
VAH26
p1019
sVreleaseRate
p1020
F0.3
sVarea
p1021
F0.1587
sa(dp1022
VtableName
p1023
VAH26MWRD_40.0_0.3
p1024
sVname
p1025
VAH26MWRD
p1026
sVreleaseRate
p1027
F0.3
sVarea
p1028
F0.1058
sa(dp1029
VtableName
p1030
g3
sVname
p1031
VMS53
p1032
sVreleaseRate
p1033
F0.3
sVarea
p1034
F0.16443600000000003
sa(dp1035
VtableName
p1036
VMS53MWRD_40.0_0.3
p1037
sVname
p1038
VMS53MWRD
p1039
sVreleaseRate
p1040
F0.3
sVarea
p1041
F0.10962400000000001
sa(dp1042
VtableName
p1043
g3
sVname
p1044
VMS54
p1045
sVreleaseRate
p1046
F0.3
sVarea
p1047
F0.187512
sa(dp1048
VtableName
p1049
VMS54MWRD_40.0_0.3
p1050
sVname
p1051
VMS54MWRD
p1052
sVreleaseRate
p1053
F0.3
sVarea
p1054
F0.125008
sa(dp1055
VtableName
p1056
g3
sVname
p1057
VMS55
p1058
sVreleaseRate
p1059
F0.3
sVarea
p1060
F0.73818
sa(dp1061
VtableName
p1062
VMS55MWRD_40.0_0.3
p1063
sVname
p1064
VMS55MWRD
p1065
sVreleaseRate
p1066
F0.3
sVarea
p1067
F0.49212
sa(dp1068
VtableName
p1069
g3
sVname
p1070
VMS56
p1071
sVreleaseRate
p1072
F0.3
sVarea
p1073
F2.21076
sa(dp1074
VtableName
p1075
VMS56MWRD_40.0_0.3
p1076
sVname
p1077
VMS56MWRD
p1078
sVreleaseRate
p1079
F0.3
sVarea
p1080
F1.47384
sa(dp1081
VtableName
p1082
g3
sVname
p1083
VMS57
p1084
sVreleaseRate
p1085
F0.3
sVarea
p1086
F2.89794
sa(dp1087
VtableName
p1088
VMS57MWRD_40.0_0.3
p1089
sVname
p1090
VMS57MWRD
p1091
sVreleaseRate
p1092
F0.3
sVarea
p1093
F1.9319600000000001
sa(dp1094
VtableName
p1095
g3
sVname
p1096
VWB31
p1097
sVreleaseRate
p1098
F0.3
sVarea
p1099
F0.390648
sa(dp1100
VtableName
p1101
VWB31MWRD_40.0_0.3
p1102
sVname
p1103
VWB31MWRD
p1104
sVreleaseRate
p1105
F0.3
sVarea
p1106
F0.260432
sa(dp1107
VtableName
p1108
g3
sVname
p1109
VWB30
p1110
sVreleaseRate
p1111
F0.3
sVarea
p1112
F0.15741
sa(dp1113
VtableName
p1114
VWB30MWRD_40.0_0.3
p1115
sVname
p1116
VWB30MWRD
p1117
sVreleaseRate
p1118
F0.3
sVarea
p1119
F0.10494000000000002
sa(dp1120
VtableName
p1121
g3
sVname
p1122
VWB25
p1123
sVreleaseRate
p1124
F0.3
sVarea
p1125
F0.170898
sa(dp1126
VtableName
p1127
VWB25MWRD_40.0_0.3
p1128
sVname
p1129
VWB25MWRD
p1130
sVreleaseRate
p1131
F0.3
sVarea
p1132
F0.11393200000000002
sa(dp1133
VtableName
p1134
g3
sVname
p1135
VWB24
p1136
sVreleaseRate
p1137
F0.3
sVarea
p1138
F0.19788599999999998
sa(dp1139
VtableName
p1140
VWB24MWRD_40.0_0.3
p1141
sVname
p1142
VWB24MWRD
p1143
sVreleaseRate
p1144
F0.3
sVarea
p1145
F0.131924
sa(dp1146
VtableName
p1147
g3
sVname
p1148
VWB23
p1149
sVreleaseRate
p1150
F0.3
sVarea
p1151
F0.29863799999999996
sa(dp1152
VtableName
p1153
VWB23MWRD_40.0_0.3
p1154
sVname
p1155
VWB23MWRD
p1156
sVreleaseRate
p1157
F0.3
sVarea
p1158
F0.19909200000000002
sa(dp1159
VtableName
p1160
g3
sVname
p1161
VWB28
p1162
sVreleaseRate
p1163
F0.3
sVarea
p1164
F0.278364
sa(dp1165
VtableName
p1166
VWB28MWRD_40.0_0.3
p1167
sVname
p1168
VWB28MWRD
p1169
sVreleaseRate
p1170
F0.3
sVarea
p1171
F0.18557600000000002
sa(dp1172
VtableName
p1173
g3
sVname
p1174
VWB27
p1175
sVreleaseRate
p1176
F0.3
sVarea
p1177
F0.08474999999999999
sa(dp1178
VtableName
p1179
VWB27MWRD_40.0_0.3
p1180
sVname
p1181
VWB27MWRD
p1182
sVreleaseRate
p1183
F0.3
sVarea
p1184
F0.056499999999999995
sa(dp1185
VtableName
p1186
g3
sVname
p1187
VWB26
p1188
sVreleaseRate
p1189
F0.3
sVarea
p1190
F0.288516
sa(dp1191
VtableName
p1192
VWB26MWRD_40.0_0.3
p1193
sVname
p1194
VWB26MWRD
p1195
sVreleaseRate
p1196
F0.3
sVarea
p1197
F0.19234400000000001
sa(dp1198
VtableName
p1199
g3
sVname
p1200
VWB22
p1201
sVreleaseRate
p1202
F0.3
sVarea
p1203
F0.242196
sa(dp1204
VtableName
p1205
VWB22MWRD_40.0_0.3
p1206
sVname
p1207
VWB22MWRD
p1208
sVreleaseRate
p1209
F0.3
sVarea
p1210
F0.16146400000000002
sa(dp1211
VtableName
p1212
g3
sVname
p1213
VWB14
p1214
sVreleaseRate
p1215
F0.3
sVarea
p1216
F0.44628599999999996
sa(dp1217
VtableName
p1218
VWB14MWRD_40.0_0.3
p1219
sVname
p1220
VWB14MWRD
p1221
sVreleaseRate
p1222
F0.3
sVarea
p1223
F0.297524
sa(dp1224
VtableName
p1225
g3
sVname
p1226
VWB13
p1227
sVreleaseRate
p1228
F0.3
sVarea
p1229
F0.272364
sa(dp1230
VtableName
p1231
VWB13MWRD_40.0_0.3
p1232
sVname
p1233
VWB13MWRD
p1234
sVreleaseRate
p1235
F0.3
sVarea
p1236
F0.18157600000000002
sa(dp1237
VtableName
p1238
g3
sVname
p1239
VWB12
p1240
sVreleaseRate
p1241
F0.3
sVarea
p1242
F0.202752
sa(dp1243
VtableName
p1244
VWB12MWRD_40.0_0.3
p1245
sVname
p1246
VWB12MWRD
p1247
sVreleaseRate
p1248
F0.3
sVarea
p1249
F0.135168
sa(dp1250
VtableName
p1251
g3
sVname
p1252
VWB06
p1253
sVreleaseRate
p1254
F0.3
sVarea
p1255
F0.356958
sa(dp1256
VtableName
p1257
VWB06MWRD_40.0_0.3
p1258
sVname
p1259
VWB06MWRD
p1260
sVreleaseRate
p1261
F0.3
sVarea
p1262
F0.237972
sa(dp1263
VtableName
p1264
g3
sVname
p1265
VWB05
p1266
sVreleaseRate
p1267
F0.3
sVarea
p1268
F0.263892
sa(dp1269
VtableName
p1270
VWB05MWRD_40.0_0.3
p1271
sVname
p1272
VWB05MWRD
p1273
sVreleaseRate
p1274
F0.3
sVarea
p1275
F0.175928
sa(dp1276
VtableName
p1277
g3
sVname
p1278
VWB04
p1279
sVreleaseRate
p1280
F0.3
sVarea
p1281
F0.058145999999999996
sa(dp1282
VtableName
p1283
VWB04MWRD_40.0_0.3
p1284
sVname
p1285
VWB04MWRD
p1286
sVreleaseRate
p1287
F0.3
sVarea
p1288
F0.038764
sa(dp1289
VtableName
p1290
g3
sVname
p1291
VWB03
p1292
sVreleaseRate
p1293
F0.3
sVarea
p1294
F0.33422399999999997
sa(dp1295
VtableName
p1296
VWB03MWRD_40.0_0.3
p1297
sVname
p1298
VWB03MWRD
p1299
sVreleaseRate
p1300
F0.3
sVarea
p1301
F0.22281600000000001
sa(dp1302
VtableName
p1303
g3
sVname
p1304
VWB02
p1305
sVreleaseRate
p1306
F0.3
sVarea
p1307
F0.11117999999999999
sa(dp1308
VtableName
p1309
VWB02MWRD_40.0_0.3
p1310
sVname
p1311
VWB02MWRD
p1312
sVreleaseRate
p1313
F0.3
sVarea
p1314
F0.07412
sa(dp1315
VtableName
p1316
g3
sVname
p1317
VWB01
p1318
sVreleaseRate
p1319
F0.3
sVarea
p1320
F0.29196599999999995
sa(dp1321
VtableName
p1322
VWB01MWRD_40.0_0.3
p1323
sVname
p1324
VWB01MWRD
p1325
sVreleaseRate
p1326
F0.3
sVarea
p1327
F0.194644
sa(dp1328
VtableName
p1329
g3
sVname
p1330
VWB11
p1331
sVreleaseRate
p1332
F0.3
sVarea
p1333
F0.164916
sa(dp1334
VtableName
p1335
VWB11MWRD_40.0_0.3
p1336
sVname
p1337
VWB11MWRD
p1338
sVreleaseRate
p1339
F0.3
sVarea
p1340
F0.109944
sa(dp1341
VtableName
p1342
g3
sVname
p1343
VWB09
p1344
sVreleaseRate
p1345
F0.3
sVarea
p1346
F0.23848799999999998
sa(dp1347
VtableName
p1348
VWB09MWRD_40.0_0.3
p1349
sVname
p1350
VWB09MWRD
p1351
sVreleaseRate
p1352
F0.3
sVarea
p1353
F0.15899200000000002
sa(dp1354
VtableName
p1355
g3
sVname
p1356
VWB08
p1357
sVreleaseRate
p1358
F0.3
sVarea
p1359
F0.08394599999999999
sa(dp1360
VtableName
p1361
VWB08MWRD_40.0_0.3
p1362
sVname
p1363
VWB08MWRD
p1364
sVreleaseRate
p1365
F0.3
sVarea
p1366
F0.05596400000000001
sa(dp1367
VtableName
p1368
g3
sVname
p1369
VWB07
p1370
sVreleaseRate
p1371
F0.3
sVarea
p1372
F0.356148
sa(dp1373
VtableName
p1374
VWB07MWRD_40.0_0.3
p1375
sVname
p1376
VWB07MWRD
p1377
sVreleaseRate
p1378
F0.3
sVarea
p1379
F0.237432
sa(dp1380
VtableName
p1381
g3
sVname
p1382
VWB10
p1383
sVreleaseRate
p1384
F0.3
sVarea
p1385
F0.268794
sa(dp1386
VtableName
p1387
VWB10MWRD_40.0_0.3
p1388
sVname
p1389
VWB10MWRD
p1390
sVreleaseRate
p1391
F0.3
sVarea
p1392
F0.17919600000000002
sa(dp1393
VtableName
p1394
g3
sVname
p1395
VWB21
p1396
sVreleaseRate
p1397
F0.3
sVarea
p1398
F0.138894
sa(dp1399
VtableName
p1400
VWB21MWRD_40.0_0.3
p1401
sVname
p1402
VWB21MWRD
p1403
sVreleaseRate
p1404
F0.3
sVarea
p1405
F0.09259600000000001
sa(dp1406
VtableName
p1407
g3
sVname
p1408
VWB18
p1409
sVreleaseRate
p1410
F0.3
sVarea
p1411
F0.104124
sa(dp1412
VtableName
p1413
VWB18MWRD_40.0_0.3
p1414
sVname
p1415
VWB18MWRD
p1416
sVreleaseRate
p1417
F0.3
sVarea
p1418
F0.069416
sa(dp1419
VtableName
p1420
g3
sVname
p1421
VWB16
p1422
sVreleaseRate
p1423
F0.3
sVarea
p1424
F0.137508
sa(dp1425
VtableName
p1426
VWB16MWRD_40.0_0.3
p1427
sVname
p1428
VWB16MWRD
p1429
sVreleaseRate
p1430
F0.3
sVarea
p1431
F0.091672
sa(dp1432
VtableName
p1433
g3
sVname
p1434
VWB15
p1435
sVreleaseRate
p1436
F0.3
sVarea
p1437
F0.130008
sa(dp1438
VtableName
p1439
VWB15MWRD_40.0_0.3
p1440
sVname
p1441
VWB15MWRD
p1442
sVreleaseRate
p1443
F0.3
sVarea
p1444
F0.08667200000000001
sa(dp1445
VtableName
p1446
g3
sVname
p1447
VWB17
p1448
sVreleaseRate
p1449
F0.3
sVarea
p1450
F0.37150799999999995
sa(dp1451
VtableName
p1452
VWB17MWRD_40.0_0.3
p1453
sVname
p1454
VWB17MWRD
p1455
sVreleaseRate
p1456
F0.3
sVarea
p1457
F0.247672
sa(dp1458
VtableName
p1459
g3
sVname
p1460
VWB20
p1461
sVreleaseRate
p1462
F0.3
sVarea
p1463
F0.07481399999999999
sa(dp1464
VtableName
p1465
VWB20MWRD_40.0_0.3
p1466
sVname
p1467
VWB20MWRD
p1468
sVreleaseRate
p1469
F0.3
sVarea
p1470
F0.049876000000000004
sa(dp1471
VtableName
p1472
g3
sVname
p1473
VWB19
p1474
sVreleaseRate
p1475
F0.3
sVarea
p1476
F0.154002
sa(dp1477
VtableName
p1478
VWB19MWRD_40.0_0.3
p1479
sVname
p1480
VWB19MWRD
p1481
sVreleaseRate
p1482
F0.3
sVarea
p1483
F0.10266800000000001
sa(dp1484
VtableName
p1485
g3
sVname
p1486
VWB29
p1487
sVreleaseRate
p1488
F0.3
sVarea
p1489
F0.12054
sa(dp1490
VtableName
p1491
VWB29MWRD_40.0_0.3
p1492
sVname
p1493
VWB29MWRD
p1494
sVreleaseRate
p1495
F0.3
sVarea
p1496
F0.08036
sa(dp1497
VtableName
p1498
g3
sVname
p1499
VWB32
p1500
sVreleaseRate
p1501
F0.3
sVarea
p1502
F0.5119319999999999
sa(dp1503
VtableName
p1504
VWB32MWRD_40.0_0.3
p1505
sVname
p1506
VWB32MWRD
p1507
sVreleaseRate
p1508
F0.3
sVarea
p1509
F0.34128800000000004
sa(dp1510
VtableName
p1511
g3
sVname
p1512
VMS58
p1513
sVreleaseRate
p1514
F0.3
sVarea
p1515
F0.098748
sa(dp1516
VtableName
p1517
VMS58MWRD_40.0_0.3
p1518
sVname
p1519
VMS58MWRD
p1520
sVreleaseRate
p1521
F0.3
sVarea
p1522
F0.065832
sa(dp1523
VtableName
p1524
g3
sVname
p1525
VMS59
p1526
sVreleaseRate
p1527
F0.3
sVarea
p1528
F0.5713739999999999
sa(dp1529
VtableName
p1530
VMS59MWRD_40.0_0.3
p1531
sVname
p1532
VMS59MWRD
p1533
sVreleaseRate
p1534
F0.3
sVarea
p1535
F0.38091600000000003
sa(dp1536
VtableName
p1537
g3
sVname
p1538
VMS60
p1539
sVreleaseRate
p1540
F0.3
sVarea
p1541
F0.42047999999999996
sa(dp1542
VtableName
p1543
VMS60MWRD_40.0_0.3
p1544
sVname
p1545
VMS60MWRD
p1546
sVreleaseRate
p1547
F0.3
sVarea
p1548
F0.28032
sa(dp1549
VtableName
p1550
g3
sVname
p1551
VMS61
p1552
sVreleaseRate
p1553
F0.3
sVarea
p1554
F0.195018
sa(dp1555
VtableName
p1556
VMS61MWRD_40.0_0.3
p1557
sVname
p1558
VMS61MWRD
p1559
sVreleaseRate
p1560
F0.3
sVarea
p1561
F0.130012
sa(dp1562
VtableName
p1563
g3
sVname
p1564
VMS62
p1565
sVreleaseRate
p1566
F0.3
sVarea
p1567
F0.217794
sa(dp1568
VtableName
p1569
VMS62MWRD_40.0_0.3
p1570
sVname
p1571
VMS62MWRD
p1572
sVreleaseRate
p1573
F0.3
sVarea
p1574
F0.145196
sa(dp1575
VtableName
p1576
g3
sVname
p1577
VSubbasin-1
p1578
sVreleaseRate
p1579
F0.3
sVarea
p1580
F0.0374688
sa(dp1581
VtableName
p1582
VSubbasin-1MWRD_40.0_0.3
p1583
sVname
p1584
VSubbasin-1MWRD
p1585
sVreleaseRate
p1586
F0.3
sVarea
p1587
F0.0249792
sa(dp1588
VtableName
p1589
g3
sVname
p1590
VSubbasin-2
p1591
sVreleaseRate
p1592
F0.3
sVarea
p1593
F0.0257118
sa(dp1594
VtableName
p1595
VSubbasin-2MWRD_40.0_0.3
p1596
sVname
p1597
VSubbasin-2MWRD
p1598
sVreleaseRate
p1599
F0.3
sVarea
p1600
F0.017141200000000002
sa.